; Function Attrs: nofree norecurse nosync nounwind memory(read, inaccessiblemem: none) uwtable
define range(i32 0, 2) i32 @Kit_SopIsCubeFree(ptr noundef readonly captures(none) %0) local_unnamed_addr #1 {
  %2 = getelementptr i8, ptr %0, i64 4
  %.val.i = load i32, ptr %2, align 4, !tbaa !3
  %3 = icmp sgt i32 %.val.i, 0
  br i1 %3, label %.lr.ph.i, label %Kit_SopCommonCube.exit

.lr.ph.i:                                         ; preds = %1
  %4 = getelementptr i8, ptr %0, i64 8
  %.val9.i = load ptr, ptr %4, align 8, !tbaa !12
  %wide.trip.count.i = zext nneg i32 %.val.i to i64
  br label %5

5:                                                ; preds = %8, %.lr.ph.i
  %indvars.iv.i = phi i64 [ 0, %.lr.ph.i ], [ %indvars.iv.next.i, %8 ]
  %.0710.i = phi i32 [ -1, %.lr.ph.i ], [ %9, %8 ]
  %6 = getelementptr inbounds nuw i32, ptr %.val9.i, i64 %indvars.iv.i
  %7 = load i32, ptr %6, align 4, !tbaa !15
  %.not.i = icmp eq i32 %7, 0
  br i1 %.not.i, label %Kit_SopCommonCube.exit.loopexit, label %8

8:                                                ; preds = %5
  %9 = and i32 %7, %.0710.i
  %indvars.iv.next.i = add nuw nsw i64 %indvars.iv.i, 1
  %exitcond.not.i = icmp eq i64 %indvars.iv.next.i, %wide.trip.count.i
  br i1 %exitcond.not.i, label %Kit_SopCommonCube.exit.loopexit, label %5, !llvm.loop !29

Kit_SopCommonCube.exit.loopexit:                  ; preds = %8, %5
  %.07.lcssa.i.ph = phi i32 [ %9, %8 ], [ %.0710.i, %5 ]
  %10 = icmp eq i32 %.07.lcssa.i.ph, 0
  %11 = zext i1 %10 to i32
  br label %Kit_SopCommonCube.exit

Kit_SopCommonCube.exit:                           ; preds = %Kit_SopCommonCube.exit.loopexit, %1
  %.07.lcssa.i = phi i32 [ 0, %1 ], [ %11, %Kit_SopCommonCube.exit.loopexit ]
  ret i32 %.07.lcssa.i
}